target datalayout = "e-m:e-p270:32:32-p271:32:32-p272:64:64-i64:64-i128:128-f80:128-n8:16:32:64-S128"
target triple = "x86_64-pc-linux-gnu"

%struct.RBasic = type { i64, i64 }
%union.anon.18 = type { double }
%struct.RFloat = type { %struct.RBasic, double }

; Function Attrs: inlinehint nounwind sspstrong uwtable
define internal i64 @RUBY_BIT_ROTR(i64 noundef %0, i32 noundef %1) #2 {
  %3 = alloca i64, align 8
  %4 = alloca i32, align 4
  store i64 %0, ptr %3, align 8, !tbaa !7
  store i32 %1, ptr %4, align 4, !tbaa !19
  %5 = load i64, ptr %3, align 8, !tbaa !7
  %6 = load i32, ptr %4, align 4, !tbaa !19
  %7 = sext i32 %6 to i64
  %8 = call i64 @llvm.fshr.i64(i64 %5, i64 %5, i64 %7)
  ret i64 %8
}

; Function Attrs: inlinehint nounwind sspstrong willreturn memory(none) uwtable
define internal i64 @rbimpl_fix2long_by_idiv(i64 noundef %0) #6 {
  %2 = alloca i64, align 8
  %3 = alloca i64, align 8
  %4 = alloca i64, align 8
  %5 = alloca i64, align 8
  store i64 %0, ptr %2, align 8, !tbaa !7
  call void @llvm.lifetime.start.p0(i64 8, ptr %3) #24
  %6 = load i64, ptr %2, align 8, !tbaa !7
  %7 = sub i64 %6, 1
  store i64 %7, ptr %3, align 8, !tbaa !7
  call void @llvm.lifetime.start.p0(i64 8, ptr %4) #24
  %8 = load i64, ptr %3, align 8, !tbaa !7
  %9 = sdiv i64 %8, 2
  store i64 %9, ptr %4, align 8, !tbaa !7
  call void @llvm.lifetime.start.p0(i64 8, ptr %5) #24
  %10 = load i64, ptr %4, align 8, !tbaa !7
  store i64 %10, ptr %5, align 8, !tbaa !7
  %11 = load i64, ptr %5, align 8, !tbaa !7
  call void @llvm.lifetime.end.p0(i64 8, ptr %5) #24
  call void @llvm.lifetime.end.p0(i64 8, ptr %4) #24
  call void @llvm.lifetime.end.p0(i64 8, ptr %3) #24
  ret i64 %11
}

; Function Attrs: inlinehint nounwind sspstrong willreturn memory(none) uwtable
define internal i64 @rbimpl_fix2long_by_shift(i64 noundef %0) #6 {
  %2 = alloca i64, align 8
  %3 = alloca i64, align 8
  %4 = alloca i64, align 8
  %5 = alloca i64, align 8
  store i64 %0, ptr %2, align 8, !tbaa !7
  call void @llvm.lifetime.start.p0(i64 8, ptr %3) #24
  %6 = load i64, ptr %2, align 8, !tbaa !7
  store i64 %6, ptr %3, align 8, !tbaa !7
  call void @llvm.lifetime.start.p0(i64 8, ptr %4) #24
  %7 = load i64, ptr %3, align 8, !tbaa !7
  %8 = ashr i64 %7, 1
  store i64 %8, ptr %4, align 8, !tbaa !7
  call void @llvm.lifetime.start.p0(i64 8, ptr %5) #24
  %9 = load i64, ptr %4, align 8, !tbaa !7
  store i64 %9, ptr %5, align 8, !tbaa !7
  %10 = load i64, ptr %5, align 8, !tbaa !7
  call void @llvm.lifetime.end.p0(i64 8, ptr %5) #24
  call void @llvm.lifetime.end.p0(i64 8, ptr %4) #24
  call void @llvm.lifetime.end.p0(i64 8, ptr %3) #24
  ret i64 %10
}

; Function Attrs: inlinehint nounwind sspstrong willreturn memory(none) uwtable
define internal zeroext i1 @rbimpl_right_shift_is_arithmetic_p() #6 {
  ret i1 true
}

; Function Attrs: inlinehint nounwind sspstrong uwtable
define internal double @rb_float_noflonum_value(i64 noundef %0) #2 {
  %2 = alloca i64, align 8
  store i64 %0, ptr %2, align 8, !tbaa !7
  %3 = load i64, ptr %2, align 8, !tbaa !7
  %4 = inttoptr i64 %3 to ptr
  %5 = getelementptr inbounds nuw %struct.RFloat, ptr %4, i32 0, i32 1
  %6 = load double, ptr %5, align 8, !tbaa !293
  ret double %6
}

; Function Attrs: inlinehint nounwind sspstrong uwtable
define internal double @rb_float_flonum_value(i64 noundef %0) #2 {
  %2 = alloca double, align 8
  %3 = alloca i64, align 8
  %4 = alloca %union.anon.18, align 8
  %5 = alloca i64, align 8
  store i64 %0, ptr %3, align 8, !tbaa !7
  %6 = load i64, ptr %3, align 8, !tbaa !7
  %7 = icmp ne i64 %6, -9223372036854775806
  br i1 %7, label %8, label %18

8:                                                ; preds = %1
  call void @llvm.lifetime.start.p0(i64 8, ptr %4) #24
  call void @llvm.lifetime.start.p0(i64 8, ptr %5) #24
  %9 = load i64, ptr %3, align 8, !tbaa !7
  %10 = lshr i64 %9, 63
  store i64 %10, ptr %5, align 8, !tbaa !7
  %11 = load i64, ptr %5, align 8, !tbaa !7
  %12 = sub i64 2, %11
  %13 = load i64, ptr %3, align 8, !tbaa !7
  %14 = and i64 %13, -4
  %15 = or i64 %12, %14
  %16 = call i64 @RUBY_BIT_ROTR(i64 noundef %15, i32 noundef 3)
  store i64 %16, ptr %4, align 8, !tbaa !16
  %17 = load double, ptr %4, align 8, !tbaa !16
  store double %17, ptr %2, align 8
  call void @llvm.lifetime.end.p0(i64 8, ptr %5) #24
  call void @llvm.lifetime.end.p0(i64 8, ptr %4) #24
  br label %19

18:                                               ; preds = %1
  store double 0.000000e+00, ptr %2, align 8
  br label %19

19:                                               ; preds = %18, %8
  %20 = load double, ptr %2, align 8
  ret double %20
}

; Function Attrs: inlinehint nounwind sspstrong willreturn memory(none) uwtable
define internal zeroext i1 @RB_FLONUM_P(i64 noundef %0) #6 {
  %2 = alloca i64, align 8
  store i64 %0, ptr %2, align 8, !tbaa !7
  %3 = load i64, ptr %2, align 8, !tbaa !7
  %4 = and i64 %3, 3
  %5 = icmp eq i64 %4, 2
  ret i1 %5
}

; Function Attrs: inlinehint nounwind sspstrong willreturn memory(none) uwtable
define internal i64 @rb_fix2long(i64 noundef %0) #6 {
  %2 = alloca i64, align 8
  %3 = alloca i64, align 8
  store i64 %0, ptr %3, align 8, !tbaa !7
  %4 = call zeroext i1 @rbimpl_right_shift_is_arithmetic_p() #30
  br i1 %4, label %5, label %8

5:                                                ; preds = %1
  %6 = load i64, ptr %3, align 8, !tbaa !7
  %7 = call i64 @rbimpl_fix2long_by_shift(i64 noundef %6) #30
  store i64 %7, ptr %2, align 8
  br label %11

8:                                                ; preds = %1
  %9 = load i64, ptr %3, align 8, !tbaa !7
  %10 = call i64 @rbimpl_fix2long_by_idiv(i64 noundef %9) #30
  store i64 %10, ptr %2, align 8
  br label %11

11:                                               ; preds = %8, %5
  %12 = load i64, ptr %2, align 8
  ret i64 %12
}

; Function Attrs: inlinehint nounwind sspstrong willreturn memory(none) uwtable
define internal zeroext i1 @RB_FIXNUM_P(i64 noundef %0) #6 {
  %2 = alloca i64, align 8
  store i64 %0, ptr %2, align 8, !tbaa !7
  %3 = load i64, ptr %2, align 8, !tbaa !7
  %4 = and i64 %3, 1
  %5 = icmp ne i64 %4, 0
  ret i1 %5
}

; Function Attrs: inlinehint nounwind sspstrong uwtable
define internal double @rb_float_value_inline(i64 noundef %0) #2 {
  %2 = alloca double, align 8
  %3 = alloca i64, align 8
  store i64 %0, ptr %3, align 8, !tbaa !7
  %4 = load i64, ptr %3, align 8, !tbaa !7
  %5 = call zeroext i1 @RB_FLONUM_P(i64 noundef %4) #30
  br i1 %5, label %6, label %9

6:                                                ; preds = %1
  %7 = load i64, ptr %3, align 8, !tbaa !7
  %8 = call double @rb_float_flonum_value(i64 noundef %7)
  store double %8, ptr %2, align 8
  br label %12

9:                                                ; preds = %1
  %10 = load i64, ptr %3, align 8, !tbaa !7
  %11 = call double @rb_float_noflonum_value(i64 noundef %10)
  store double %11, ptr %2, align 8
  br label %12

12:                                               ; preds = %9, %6
  %13 = load double, ptr %2, align 8
  ret double %13
}

; Function Attrs: nounwind sspstrong uwtable
define hidden i64 @rb_integer_float_cmp(i64 noundef %0, i64 noundef %1) #0 {
  %3 = alloca i64, align 8
  %4 = alloca i64, align 8
  %5 = alloca i64, align 8
  %6 = alloca double, align 8
  %7 = alloca double, align 8
  %8 = alloca double, align 8
  %9 = alloca i64, align 8
  %10 = alloca i32, align 4
  %11 = alloca i64, align 8
  %12 = alloca i64, align 8
  store i64 %0, ptr %4, align 8, !tbaa !7
  store i64 %1, ptr %5, align 8, !tbaa !7
  call void @llvm.lifetime.start.p0(i64 8, ptr %6) #24
  %13 = load i64, ptr %5, align 8, !tbaa !7
  %14 = call double @rb_float_value_inline(i64 noundef %13)
  store double %14, ptr %6, align 8, !tbaa !146
  call void @llvm.lifetime.start.p0(i64 8, ptr %7) #24
  call void @llvm.lifetime.start.p0(i64 8, ptr %8) #24
  call void @llvm.lifetime.start.p0(i64 8, ptr %9) #24
  %15 = load double, ptr %6, align 8, !tbaa !146
  %16 = call i1 @llvm.is.fpclass.f64(double %15, i32 3)
  br i1 %16, label %17, label %18

17:                                               ; preds = %2
  store i64 4, ptr %3, align 8
  store i32 1, ptr %10, align 4
  br label %87

18:                                               ; preds = %2
  %19 = load double, ptr %6, align 8, !tbaa !146
  %20 = call double @llvm.fabs.f64(double %19) #33
  %21 = fcmp oeq double %20, 0x7FF0000000000000
  %22 = bitcast double %19 to i64
  %23 = icmp slt i64 %22, 0
  %24 = select i1 %23, i32 -1, i32 1
  %25 = select i1 %21, i32 %24, i32 0
  %26 = icmp ne i32 %25, 0
  br i1 %26, label %27, label %32

27:                                               ; preds = %18
  %28 = load double, ptr %6, align 8, !tbaa !146
  %29 = fcmp ogt double %28, 0.000000e+00
  br i1 %29, label %30, label %31

30:                                               ; preds = %27
  store i64 -1, ptr %3, align 8
  store i32 1, ptr %10, align 4
  br label %87

31:                                               ; preds = %27
  store i64 3, ptr %3, align 8
  store i32 1, ptr %10, align 4
  br label %87

32:                                               ; preds = %18
  %33 = load double, ptr %6, align 8, !tbaa !146
  %34 = call double @modf(double noundef %33, ptr noundef %7) #24
  store double %34, ptr %8, align 8, !tbaa !146
  %35 = load i64, ptr %4, align 8, !tbaa !7
  %36 = call zeroext i1 @RB_FIXNUM_P(i64 noundef %35) #30
  br i1 %36, label %37, label %69

37:                                               ; preds = %32
  call void @llvm.lifetime.start.p0(i64 8, ptr %11) #24
  call void @llvm.lifetime.start.p0(i64 8, ptr %12) #24
  %38 = load double, ptr %7, align 8, !tbaa !146
  %39 = fcmp olt double %38, 0xC3D0000000000000
  br i1 %39, label %40, label %41

40:                                               ; preds = %37
  store i64 3, ptr %3, align 8
  store i32 1, ptr %10, align 4
  br label %68

41:                                               ; preds = %37
  %42 = load double, ptr %7, align 8, !tbaa !146
  %43 = fcmp ole double 0x43D0000000000000, %42
  br i1 %43, label %44, label %45

44:                                               ; preds = %41
  store i64 -1, ptr %3, align 8
  store i32 1, ptr %10, align 4
  br label %68

45:                                               ; preds = %41
  %46 = load i64, ptr %4, align 8, !tbaa !7
  %47 = call i64 @rb_fix2long(i64 noundef %46) #30
  store i64 %47, ptr %11, align 8, !tbaa !7
  %48 = load double, ptr %7, align 8, !tbaa !146
  %49 = fptosi double %48 to i64
  store i64 %49, ptr %12, align 8, !tbaa !7
  %50 = load i64, ptr %11, align 8, !tbaa !7
  %51 = load i64, ptr %12, align 8, !tbaa !7
  %52 = icmp slt i64 %50, %51
  br i1 %52, label %53, label %54

53:                                               ; preds = %45
  store i64 -1, ptr %3, align 8
  store i32 1, ptr %10, align 4
  br label %68

54:                                               ; preds = %45
  %55 = load i64, ptr %11, align 8, !tbaa !7
  %56 = load i64, ptr %12, align 8, !tbaa !7
  %57 = icmp sgt i64 %55, %56
  br i1 %57, label %58, label %59

58:                                               ; preds = %54
  store i64 3, ptr %3, align 8
  store i32 1, ptr %10, align 4
  br label %68

59:                                               ; preds = %54
  %60 = load double, ptr %8, align 8, !tbaa !146
  %61 = fcmp olt double %60, 0.000000e+00
  br i1 %61, label %62, label %63

62:                                               ; preds = %59
  store i64 3, ptr %3, align 8
  store i32 1, ptr %10, align 4
  br label %68

63:                                               ; preds = %59
  %64 = load double, ptr %8, align 8, !tbaa !146
  %65 = fcmp olt double 0.000000e+00, %64
  br i1 %65, label %66, label %67

66:                                               ; preds = %63
  store i64 -1, ptr %3, align 8
  store i32 1, ptr %10, align 4
  br label %68

67:                                               ; preds = %63
  store i64 1, ptr %3, align 8
  store i32 1, ptr %10, align 4
  br label %68

68:                                               ; preds = %67, %66, %62, %58, %53, %44, %40
  call void @llvm.lifetime.end.p0(i64 8, ptr %12) #24
  call void @llvm.lifetime.end.p0(i64 8, ptr %11) #24
  br label %87

69:                                               ; preds = %32
  %70 = load double, ptr %7, align 8, !tbaa !146
  %71 = call i64 @rb_dbl2big(double noundef %70)
  store i64 %71, ptr %5, align 8, !tbaa !7
  %72 = load i64, ptr %4, align 8, !tbaa !7
  %73 = load i64, ptr %5, align 8, !tbaa !7
  %74 = call i64 @rb_big_cmp(i64 noundef %72, i64 noundef %73)
  store i64 %74, ptr %9, align 8, !tbaa !7
  %75 = load double, ptr %8, align 8, !tbaa !146
  %76 = fcmp oeq double %75, 0.000000e+00
  br i1 %76, label %80, label %77

77:                                               ; preds = %69
  %78 = load i64, ptr %9, align 8, !tbaa !7
  %79 = icmp ne i64 %78, 1
  br i1 %79, label %80, label %82

80:                                               ; preds = %77, %69
  %81 = load i64, ptr %9, align 8, !tbaa !7
  store i64 %81, ptr %3, align 8
  store i32 1, ptr %10, align 4
  br label %87

82:                                               ; preds = %77
  %83 = load double, ptr %8, align 8, !tbaa !146
  %84 = fcmp olt double %83, 0.000000e+00
  br i1 %84, label %85, label %86

85:                                               ; preds = %82
  store i64 3, ptr %3, align 8
  store i32 1, ptr %10, align 4
  br label %87

86:                                               ; preds = %82
  store i64 -1, ptr %3, align 8
  store i32 1, ptr %10, align 4
  br label %87

87:                                               ; preds = %86, %85, %80, %68, %31, %30, %17
  call void @llvm.lifetime.end.p0(i64 8, ptr %9) #24
  call void @llvm.lifetime.end.p0(i64 8, ptr %8) #24
  call void @llvm.lifetime.end.p0(i64 8, ptr %7) #24
  call void @llvm.lifetime.end.p0(i64 8, ptr %6) #24
  %88 = load i64, ptr %3, align 8
  ret i64 %88
}