; Function Attrs: nounwind sspstrong uwtable
define hidden i64 @rb_integer_float_cmp(i64 noundef %0, i64 noundef %1) local_unnamed_addr #0 {
  %3 = alloca double, align 8
  %4 = and i64 %1, 3
  %5 = icmp eq i64 %4, 2
  br i1 %5, label %6, label %13

6:                                                ; preds = %2
  %.not.i.i = icmp eq i64 %1, -9223372036854775806
  br i1 %.not.i.i, label %rb_float_value_inline.exit.thread, label %7

rb_float_value_inline.exit.thread:                ; preds = %6
  call void @llvm.lifetime.start.p0(i64 8, ptr nonnull %3) #27
  br label %18

7:                                                ; preds = %6
  %.neg.i.i = ashr i64 %1, 63
  %8 = add nsw i64 %.neg.i.i, 2
  %9 = and i64 %1, -4
  %10 = or i64 %8, %9
  %11 = tail call noundef i64 @llvm.fshl.i64(i64 range(i64 1, 0) %10, i64 range(i64 1, 0) %10, i64 61)
  %12 = bitcast i64 %11 to double
  br label %rb_float_value_inline.exit

13:                                               ; preds = %2
  %14 = inttoptr i64 %1 to ptr
  %15 = getelementptr inbounds nuw i8, ptr %14, i64 16
  %16 = load double, ptr %15, align 8, !tbaa !198
  br label %rb_float_value_inline.exit

rb_float_value_inline.exit:                       ; preds = %7, %13
  %.0.i = phi double [ %16, %13 ], [ %12, %7 ]
  call void @llvm.lifetime.start.p0(i64 8, ptr nonnull %3) #27
  %17 = fcmp uno double %.0.i, 0.000000e+00
  br i1 %17, label %47, label %18

18:                                               ; preds = %rb_float_value_inline.exit.thread, %rb_float_value_inline.exit
  %.0.i29 = phi double [ 0.000000e+00, %rb_float_value_inline.exit.thread ], [ %.0.i, %rb_float_value_inline.exit ]
  %19 = tail call double @llvm.fabs.f64(double %.0.i29) #34
  %20 = fcmp oeq double %19, 0x7FF0000000000000
  br i1 %20, label %21, label %23

21:                                               ; preds = %18
  %22 = fcmp ogt double %.0.i29, 0.000000e+00
  %. = select i1 %22, i64 -1, i64 3
  br label %47

23:                                               ; preds = %18
  %24 = call double @modf(double noundef %.0.i29, ptr noundef nonnull %3) #27
  %25 = and i64 %0, 1
  %.not = icmp eq i64 %25, 0
  %26 = load double, ptr %3, align 8, !tbaa !201
  br i1 %.not, label %40, label %27

27:                                               ; preds = %23
  %28 = fcmp olt double %26, 0xC3D0000000000000
  br i1 %28, label %47, label %29

29:                                               ; preds = %27
  %30 = fcmp ult double %26, 0x43D0000000000000
  br i1 %30, label %31, label %47

31:                                               ; preds = %29
  %32 = ashr i64 %0, 1
  %33 = fptosi double %26 to i64
  %34 = icmp slt i64 %32, %33
  br i1 %34, label %47, label %35

35:                                               ; preds = %31
  %36 = icmp sgt i64 %32, %33
  %37 = fcmp olt double %24, 0.000000e+00
  %or.cond27 = select i1 %36, i1 true, i1 %37
  br i1 %or.cond27, label %47, label %38

38:                                               ; preds = %35
  %39 = fcmp ogt double %24, 0.000000e+00
  %.25 = select i1 %39, i64 -1, i64 1
  br label %47

40:                                               ; preds = %23
  %41 = tail call i64 @rb_dbl2big(double noundef %26)
  %42 = tail call i64 @rb_big_cmp(i64 noundef %0, i64 noundef %41)
  %43 = fcmp oeq double %24, 0.000000e+00
  %44 = icmp ne i64 %42, 1
  %or.cond = select i1 %43, i1 true, i1 %44
  br i1 %or.cond, label %47, label %45

45:                                               ; preds = %40
  %46 = fcmp olt double %24, 0.000000e+00
  %.26 = select i1 %46, i64 3, i64 -1
  br label %47

47:                                               ; preds = %45, %40, %27, %29, %31, %35, %38, %21, %rb_float_value_inline.exit
  %.0 = phi i64 [ 4, %rb_float_value_inline.exit ], [ %., %21 ], [ 3, %27 ], [ -1, %29 ], [ -1, %31 ], [ 3, %35 ], [ %.25, %38 ], [ %42, %40 ], [ %.26, %45 ]
  call void @llvm.lifetime.end.p0(i64 8, ptr nonnull %3) #27
  ret i64 %.0
}